target datalayout = "e-m:e-p270:32:32-p271:32:32-p272:64:64-i64:64-i128:128-f80:128-n8:16:32:64-S128"
target triple = "x86_64-pc-linux-gnu"

%struct.FunctionCallInfoBaseData = type { ptr, ptr, ptr, i32, i8, i16, [0 x %struct.NullableDatum] }
%struct.NullableDatum = type { i64, i8 }
%struct.varattrib_1b = type { i8, [0 x i8] }
%struct.anon.1 = type { i32, [0 x i8] }
%struct.varattrib_1b_e = type { i8, i8, [0 x i8] }

; Function Attrs: inlinehint nounwind uwtable
define internal i64 @UInt64GetDatum(i64 noundef %0) #1 {
  %2 = alloca i64, align 8
  store i64 %0, ptr %2, align 8
  %3 = load i64, ptr %2, align 8
  ret i64 %3
}

; Function Attrs: inlinehint nounwind uwtable
define internal i64 @hash_any_extended(ptr noundef %0, i32 noundef %1, i64 noundef %2) #1 {
  %4 = alloca ptr, align 8
  %5 = alloca i32, align 4
  %6 = alloca i64, align 8
  store ptr %0, ptr %4, align 8
  store i32 %1, ptr %5, align 4
  store i64 %2, ptr %6, align 8
  %7 = load ptr, ptr %4, align 8
  %8 = load i32, ptr %5, align 4
  %9 = load i64, ptr %6, align 8
  %10 = call i64 @hash_bytes_extended(ptr noundef %7, i32 noundef %8, i64 noundef %9)
  %11 = call i64 @UInt64GetDatum(i64 noundef %10)
  ret i64 %11
}

; Function Attrs: inlinehint nounwind uwtable
define internal i64 @DatumGetInt64(i64 noundef %0) #1 {
  %2 = alloca i64, align 8
  store i64 %0, ptr %2, align 8
  %3 = load i64, ptr %2, align 8
  ret i64 %3
}

; Function Attrs: inlinehint nounwind uwtable
define internal ptr @DatumGetPointer(i64 noundef %0) #1 {
  %2 = alloca i64, align 8
  store i64 %0, ptr %2, align 8
  %3 = load i64, ptr %2, align 8
  %4 = inttoptr i64 %3 to ptr
  ret ptr %4
}

; Function Attrs: nounwind uwtable
define dso_local i64 @hashvarlenaextended(ptr noundef %0) #0 {
  %2 = alloca ptr, align 8
  %3 = alloca ptr, align 8
  %4 = alloca i64, align 8
  store ptr %0, ptr %2, align 8
  call void @llvm.lifetime.start.p0(i64 8, ptr %3) #7
  %5 = load ptr, ptr %2, align 8
  %6 = getelementptr inbounds nuw %struct.FunctionCallInfoBaseData, ptr %5, i32 0, i32 6
  %7 = getelementptr inbounds [0 x %struct.NullableDatum], ptr %6, i64 0, i64 0
  %8 = getelementptr inbounds nuw %struct.NullableDatum, ptr %7, i32 0, i32 0
  %9 = load i64, ptr %8, align 8
  %10 = call ptr @DatumGetPointer(i64 noundef %9)
  %11 = call ptr @pg_detoast_datum_packed(ptr noundef %10)
  store ptr %11, ptr %3, align 8
  call void @llvm.lifetime.start.p0(i64 8, ptr %4) #7
  %12 = load ptr, ptr %3, align 8
  %13 = getelementptr inbounds nuw %struct.varattrib_1b, ptr %12, i32 0, i32 0
  %14 = load i8, ptr %13, align 1
  %15 = zext i8 %14 to i32
  %16 = and i32 %15, 1
  %17 = icmp eq i32 %16, 1
  br i1 %17, label %18, label %22

18:                                               ; preds = %1
  %19 = load ptr, ptr %3, align 8
  %20 = getelementptr inbounds nuw %struct.varattrib_1b, ptr %19, i32 0, i32 1
  %21 = getelementptr inbounds [0 x i8], ptr %20, i64 0, i64 0
  br label %26

22:                                               ; preds = %1
  %23 = load ptr, ptr %3, align 8
  %24 = getelementptr inbounds nuw %struct.anon.1, ptr %23, i32 0, i32 1
  %25 = getelementptr inbounds [0 x i8], ptr %24, i64 0, i64 0
  br label %26

26:                                               ; preds = %22, %18
  %27 = phi ptr [ %21, %18 ], [ %25, %22 ]
  %28 = load ptr, ptr %3, align 8
  %29 = getelementptr inbounds nuw %struct.varattrib_1b, ptr %28, i32 0, i32 0
  %30 = load i8, ptr %29, align 1
  %31 = zext i8 %30 to i32
  %32 = icmp eq i32 %31, 1
  br i1 %32, label %33, label %61

33:                                               ; preds = %26
  %34 = load ptr, ptr %3, align 8
  %35 = getelementptr inbounds nuw %struct.varattrib_1b_e, ptr %34, i32 0, i32 1
  %36 = load i8, ptr %35, align 1
  %37 = zext i8 %36 to i32
  %38 = icmp eq i32 %37, 1
  br i1 %38, label %39, label %40

39:                                               ; preds = %33
  br label %57

40:                                               ; preds = %33
  %41 = load ptr, ptr %3, align 8
  %42 = getelementptr inbounds nuw %struct.varattrib_1b_e, ptr %41, i32 0, i32 1
  %43 = load i8, ptr %42, align 1
  %44 = zext i8 %43 to i32
  %45 = and i32 %44, -2
  %46 = icmp eq i32 %45, 2
  br i1 %46, label %47, label %48

47:                                               ; preds = %40
  br label %55

48:                                               ; preds = %40
  %49 = load ptr, ptr %3, align 8
  %50 = getelementptr inbounds nuw %struct.varattrib_1b_e, ptr %49, i32 0, i32 1
  %51 = load i8, ptr %50, align 1
  %52 = zext i8 %51 to i32
  %53 = icmp eq i32 %52, 18
  %54 = select i1 %53, i64 16, i64 0
  br label %55

55:                                               ; preds = %48, %47
  %56 = phi i64 [ 8, %47 ], [ %54, %48 ]
  br label %57

57:                                               ; preds = %55, %39
  %58 = phi i64 [ 8, %39 ], [ %56, %55 ]
  %59 = add i64 2, %58
  %60 = sub i64 %59, 2
  br label %87

61:                                               ; preds = %26
  %62 = load ptr, ptr %3, align 8
  %63 = getelementptr inbounds nuw %struct.varattrib_1b, ptr %62, i32 0, i32 0
  %64 = load i8, ptr %63, align 1
  %65 = zext i8 %64 to i32
  %66 = and i32 %65, 1
  %67 = icmp eq i32 %66, 1
  br i1 %67, label %68, label %77

68:                                               ; preds = %61
  %69 = load ptr, ptr %3, align 8
  %70 = getelementptr inbounds nuw %struct.varattrib_1b, ptr %69, i32 0, i32 0
  %71 = load i8, ptr %70, align 1
  %72 = zext i8 %71 to i32
  %73 = ashr i32 %72, 1
  %74 = and i32 %73, 127
  %75 = sext i32 %74 to i64
  %76 = sub i64 %75, 1
  br label %85

77:                                               ; preds = %61
  %78 = load ptr, ptr %3, align 8
  %79 = getelementptr inbounds nuw %struct.anon.1, ptr %78, i32 0, i32 0
  %80 = load i32, ptr %79, align 4
  %81 = lshr i32 %80, 2
  %82 = and i32 %81, 1073741823
  %83 = sub i32 %82, 4
  %84 = zext i32 %83 to i64
  br label %85

85:                                               ; preds = %77, %68
  %86 = phi i64 [ %76, %68 ], [ %84, %77 ]
  br label %87

87:                                               ; preds = %85, %57
  %88 = phi i64 [ %60, %57 ], [ %86, %85 ]
  %89 = trunc i64 %88 to i32
  %90 = load ptr, ptr %2, align 8
  %91 = getelementptr inbounds nuw %struct.FunctionCallInfoBaseData, ptr %90, i32 0, i32 6
  %92 = getelementptr inbounds [0 x %struct.NullableDatum], ptr %91, i64 0, i64 1
  %93 = getelementptr inbounds nuw %struct.NullableDatum, ptr %92, i32 0, i32 0
  %94 = load i64, ptr %93, align 8
  %95 = call i64 @DatumGetInt64(i64 noundef %94)
  %96 = call i64 @hash_any_extended(ptr noundef %27, i32 noundef %89, i64 noundef %95)
  store i64 %96, ptr %4, align 8
  br label %97

97:                                               ; preds = %87
  %98 = load ptr, ptr %3, align 8
  %99 = load ptr, ptr %2, align 8
  %100 = getelementptr inbounds nuw %struct.FunctionCallInfoBaseData, ptr %99, i32 0, i32 6
  %101 = getelementptr inbounds [0 x %struct.NullableDatum], ptr %100, i64 0, i64 0
  %102 = getelementptr inbounds nuw %struct.NullableDatum, ptr %101, i32 0, i32 0
  %103 = load i64, ptr %102, align 8
  %104 = call ptr @DatumGetPointer(i64 noundef %103)
  %105 = icmp ne ptr %98, %104
  br i1 %105, label %106, label %108

106:                                              ; preds = %97
  %107 = load ptr, ptr %3, align 8
  call void @pfree(ptr noundef %107)
  br label %108

108:                                              ; preds = %106, %97
  br label %109

109:                                              ; preds = %108
  br label %110

110:                                              ; preds = %109
  %111 = load i64, ptr %4, align 8
  call void @llvm.lifetime.end.p0(i64 8, ptr %4) #7
  call void @llvm.lifetime.end.p0(i64 8, ptr %3) #7
  ret i64 %111
}